target datalayout = "e-m:e-p270:32:32-p271:32:32-p272:64:64-i64:64-i128:128-f80:128-n8:16:32:64-S128"
target triple = "x86_64-pc-linux-gnu"

%struct.mbedtls_des_context = type { [32 x i32] }

; Function Attrs: nounwind uwtable
define internal i32 @pem_des_decrypt(ptr noundef %0, ptr noundef %1, i64 noundef %2, ptr noundef %3, i64 noundef %4) #0 {
  %6 = alloca ptr, align 8
  %7 = alloca ptr, align 8
  %8 = alloca i64, align 8
  %9 = alloca ptr, align 8
  %10 = alloca i64, align 8
  %11 = alloca %struct.mbedtls_des_context, align 4
  %12 = alloca [8 x i8], align 1
  %13 = alloca i32, align 4
  store ptr %0, ptr %6, align 8, !tbaa !8
  store ptr %1, ptr %7, align 8, !tbaa !8
  store i64 %2, ptr %8, align 8, !tbaa !10
  store ptr %3, ptr %9, align 8, !tbaa !8
  store i64 %4, ptr %10, align 8, !tbaa !10
  call void @llvm.lifetime.start.p0(i64 128, ptr %11) #9
  call void @llvm.lifetime.start.p0(i64 8, ptr %12) #9
  call void @llvm.lifetime.start.p0(i64 4, ptr %13) #9
  store i32 -110, ptr %13, align 4, !tbaa !14
  call void @mbedtls_des_init(ptr noundef %11)
  %14 = getelementptr inbounds [8 x i8], ptr %12, i64 0, i64 0
  %15 = load ptr, ptr %6, align 8, !tbaa !8
  %16 = load ptr, ptr %9, align 8, !tbaa !8
  %17 = load i64, ptr %10, align 8, !tbaa !10
  %18 = call i32 @pem_pbkdf1(ptr noundef %14, i64 noundef 8, ptr noundef %15, ptr noundef %16, i64 noundef %17)
  store i32 %18, ptr %13, align 4, !tbaa !14
  %19 = icmp ne i32 %18, 0
  br i1 %19, label %20, label %21

20:                                               ; preds = %5
  br label %32

21:                                               ; preds = %5
  %22 = getelementptr inbounds [8 x i8], ptr %12, i64 0, i64 0
  %23 = call i32 @mbedtls_des_setkey_dec(ptr noundef %11, ptr noundef %22)
  store i32 %23, ptr %13, align 4, !tbaa !14
  %24 = icmp ne i32 %23, 0
  br i1 %24, label %25, label %26

25:                                               ; preds = %21
  br label %32

26:                                               ; preds = %21
  %27 = load i64, ptr %8, align 8, !tbaa !10
  %28 = load ptr, ptr %6, align 8, !tbaa !8
  %29 = load ptr, ptr %7, align 8, !tbaa !8
  %30 = load ptr, ptr %7, align 8, !tbaa !8
  %31 = call i32 @mbedtls_des_crypt_cbc(ptr noundef %11, i32 noundef 0, i64 noundef %27, ptr noundef %28, ptr noundef %29, ptr noundef %30)
  store i32 %31, ptr %13, align 4, !tbaa !14
  br label %32

32:                                               ; preds = %26, %25, %20
  call void @mbedtls_des_free(ptr noundef %11)
  %33 = getelementptr inbounds [8 x i8], ptr %12, i64 0, i64 0
  call void @mbedtls_platform_zeroize(ptr noundef %33, i64 noundef 8)
  %34 = load i32, ptr %13, align 4, !tbaa !14
  call void @llvm.lifetime.end.p0(i64 4, ptr %13) #9
  call void @llvm.lifetime.end.p0(i64 8, ptr %12) #9
  call void @llvm.lifetime.end.p0(i64 128, ptr %11) #9
  ret i32 %34
}